target datalayout = "e-m:e-p270:32:32-p271:32:32-p272:64:64-i64:64-i128:128-f80:128-n8:16:32:64-S128"
target triple = "x86_64-pc-linux-gnu"

; Function Attrs: nounwind uwtable
define internal i64 @align_up(i64 noundef %0, i64 noundef %1) #0 {
  %3 = alloca i64, align 8
  %4 = alloca i64, align 8
  store i64 %0, ptr %3, align 8, !tbaa !19
  store i64 %1, ptr %4, align 8, !tbaa !19
  br label %5

5:                                                ; preds = %2
  %6 = load i64, ptr %4, align 8, !tbaa !19
  %7 = load i64, ptr %4, align 8, !tbaa !19
  %8 = sub i64 %7, 1
  %9 = and i64 %6, %8
  %10 = icmp eq i64 0, %9
  br i1 %10, label %11, label %12

11:                                               ; preds = %5
  br i1 true, label %16, label %12

12:                                               ; preds = %11, %5
  br label %13

13:                                               ; preds = %12
  br label %14

14:                                               ; preds = %13
  br label %15

15:                                               ; preds = %14, %15
  br label %15

16:                                               ; preds = %11
  br label %17

17:                                               ; preds = %16
  %18 = load i64, ptr %3, align 8, !tbaa !19
  %19 = load i64, ptr %4, align 8, !tbaa !19
  %20 = sub i64 %19, 1
  %21 = add i64 %18, %20
  %22 = load i64, ptr %4, align 8, !tbaa !19
  %23 = sub i64 %22, 1
  %24 = xor i64 %23, -1
  %25 = and i64 %21, %24
  ret i64 %25
}

; Function Attrs: nounwind uwtable
define internal i64 @adjust_request_size(i64 noundef %0, i64 noundef %1) #0 {
  %3 = alloca i64, align 8
  %4 = alloca i64, align 8
  %5 = alloca i64, align 8
  %6 = alloca i64, align 8
  store i64 %0, ptr %3, align 8, !tbaa !19
  store i64 %1, ptr %4, align 8, !tbaa !19
  call void @llvm.lifetime.start.p0(i64 8, ptr %5) #5
  store i64 0, ptr %5, align 8, !tbaa !19
  %7 = load i64, ptr %3, align 8, !tbaa !19
  %8 = icmp ne i64 %7, 0
  br i1 %8, label %9, label %24

9:                                                ; preds = %2
  call void @llvm.lifetime.start.p0(i64 8, ptr %6) #5
  %10 = load i64, ptr %3, align 8, !tbaa !19
  %11 = load i64, ptr %4, align 8, !tbaa !19
  %12 = call i64 @align_up(i64 noundef %10, i64 noundef %11)
  store i64 %12, ptr %6, align 8, !tbaa !19
  %13 = load i64, ptr %6, align 8, !tbaa !19
  %14 = icmp ult i64 %13, 65536
  br i1 %14, label %15, label %23

15:                                               ; preds = %9
  %16 = load i64, ptr %6, align 8, !tbaa !19
  %17 = icmp ugt i64 %16, 24
  br i1 %17, label %18, label %20

18:                                               ; preds = %15
  %19 = load i64, ptr %6, align 8, !tbaa !19
  br label %21

20:                                               ; preds = %15
  br label %21

21:                                               ; preds = %20, %18
  %22 = phi i64 [ %19, %18 ], [ 24, %20 ]
  store i64 %22, ptr %5, align 8, !tbaa !19
  br label %23

23:                                               ; preds = %21, %9
  call void @llvm.lifetime.end.p0(i64 8, ptr %6) #5
  br label %24

24:                                               ; preds = %23, %2
  %25 = load i64, ptr %5, align 8, !tbaa !19
  call void @llvm.lifetime.end.p0(i64 8, ptr %5) #5
  ret i64 %25
}

; Function Attrs: nounwind uwtable
define ptr @lv_tlsf_malloc(ptr noundef %0, i64 noundef %1) #0 {
  %3 = alloca ptr, align 8
  %4 = alloca i64, align 8
  %5 = alloca ptr, align 8
  %6 = alloca i64, align 8
  %7 = alloca ptr, align 8
  store ptr %0, ptr %3, align 8, !tbaa !3
  store i64 %1, ptr %4, align 8, !tbaa !19
  call void @llvm.lifetime.start.p0(i64 8, ptr %5) #5
  %8 = load ptr, ptr %3, align 8, !tbaa !3
  store ptr %8, ptr %5, align 8, !tbaa !3
  call void @llvm.lifetime.start.p0(i64 8, ptr %6) #5
  %9 = load i64, ptr %4, align 8, !tbaa !19
  %10 = call i64 @adjust_request_size(i64 noundef %9, i64 noundef 8)
  store i64 %10, ptr %6, align 8, !tbaa !19
  call void @llvm.lifetime.start.p0(i64 8, ptr %7) #5
  %11 = load ptr, ptr %5, align 8, !tbaa !3
  %12 = load i64, ptr %6, align 8, !tbaa !19
  %13 = call ptr @block_locate_free(ptr noundef %11, i64 noundef %12)
  store ptr %13, ptr %7, align 8, !tbaa !3
  %14 = load ptr, ptr %5, align 8, !tbaa !3
  %15 = load ptr, ptr %7, align 8, !tbaa !3
  %16 = load i64, ptr %6, align 8, !tbaa !19
  %17 = call ptr @block_prepare_used(ptr noundef %14, ptr noundef %15, i64 noundef %16)
  call void @llvm.lifetime.end.p0(i64 8, ptr %7) #5
  call void @llvm.lifetime.end.p0(i64 8, ptr %6) #5
  call void @llvm.lifetime.end.p0(i64 8, ptr %5) #5
  ret ptr %17
}