; Function Attrs: nofree norecurse nosync nounwind memory(readwrite, inaccessiblemem: none) uwtable
define ptr @lv_tlsf_malloc(ptr noundef %0, i64 noundef %1) local_unnamed_addr #6 {
  %.not.i = icmp eq i64 %1, 0
  br i1 %.not.i, label %adjust_request_size.exit, label %3

3:                                                ; preds = %2
  %4 = add i64 %1, 7
  %5 = and i64 %4, -8
  %6 = icmp ult i64 %4, 65536
  %7 = tail call i64 @llvm.umax.i64(i64 %5, i64 24)
  %.1.i = select i1 %6, i64 %7, i64 0
  br label %adjust_request_size.exit

adjust_request_size.exit:                         ; preds = %2, %3
  %.0.i = phi i64 [ %.1.i, %3 ], [ 0, %2 ]
  %8 = tail call fastcc ptr @block_locate_free(ptr noundef %0, i64 noundef %.0.i)
  %9 = tail call fastcc ptr @block_prepare_used(ptr noundef %0, ptr noundef %8, i64 noundef %.0.i)
  ret ptr %9
}